; Function Attrs: nounwind uwtable
define internal ptr @EVPXOF_digest(ptr noundef %0, ptr noundef %1, i64 noundef %2, ptr noundef %3) #0 {
  %5 = alloca [1 x ptr], align 8
  call void @llvm.lifetime.start.p0(i64 8, ptr nonnull %5) #9
  %6 = icmp eq ptr %3, null
  %7 = icmp eq i64 %2, 1
  %or.cond3 = and i1 %7, %6
  %8 = icmp ne ptr %1, null
  %or.cond5 = and i1 %8, %or.cond3
  br i1 %or.cond5, label %.thread, label %9

9:                                                ; preds = %4
  %10 = call ptr @_PyArg_UnpackKeywords(ptr noundef %1, i64 noundef %2, ptr noundef null, ptr noundef %3, ptr noundef nonnull @EVPXOF_digest._parser, i32 noundef 1, i32 noundef 1, i32 noundef 0, i32 noundef 0, ptr noundef nonnull %5) #9
  %.not = icmp eq ptr %10, null
  br i1 %.not, label %EVPXOF_digest_impl.exit, label %.thread

.thread:                                          ; preds = %4, %9
  %11 = phi ptr [ %10, %9 ], [ %1, %4 ]
  %12 = load ptr, ptr %11, align 8, !tbaa !23
  %13 = call ptr @_PyNumber_Index(ptr noundef %12) #9
  %.not31 = icmp eq ptr %13, null
  br i1 %.not31, label %Py_DECREF.exit.thread, label %14

14:                                               ; preds = %.thread
  %15 = call i64 @PyLong_AsSsize_t(ptr noundef nonnull %13) #9
  %16 = load i32, ptr %13, align 8, !tbaa !21
  %.not.i = icmp sgt i32 %16, -1
  br i1 %.not.i, label %17, label %Py_DECREF.exit

17:                                               ; preds = %14
  %18 = add nsw i32 %16, -1
  store i32 %18, ptr %13, align 8, !tbaa !21
  %19 = icmp eq i32 %18, 0
  br i1 %19, label %20, label %Py_DECREF.exit

20:                                               ; preds = %17
  call void @_Py_Dealloc(ptr noundef nonnull %13) #9
  br label %Py_DECREF.exit

Py_DECREF.exit:                                   ; preds = %20, %17, %14
  %21 = icmp eq i64 %15, -1
  br i1 %21, label %Py_DECREF.exit.thread, label %23

Py_DECREF.exit.thread:                            ; preds = %.thread, %Py_DECREF.exit
  %22 = call ptr @PyErr_Occurred() #9
  %.not32 = icmp eq ptr %22, null
  br i1 %.not32, label %23, label %EVPXOF_digest_impl.exit

23:                                               ; preds = %Py_DECREF.exit.thread, %Py_DECREF.exit
  %.02537.ph = phi i64 [ %15, %Py_DECREF.exit ], [ -1, %Py_DECREF.exit.thread ]
  %24 = call ptr @PyBytes_FromStringAndSize(ptr noundef null, i64 noundef %.02537.ph) #9
  %25 = icmp eq ptr %24, null
  br i1 %25, label %EVPXOF_digest_impl.exit, label %26

26:                                               ; preds = %23
  %27 = call ptr @EVP_MD_CTX_new() #9
  %28 = icmp eq ptr %27, null
  br i1 %28, label %29, label %36

29:                                               ; preds = %26
  %30 = load i32, ptr %24, align 8, !tbaa !21
  %.not.i20.i = icmp sgt i32 %30, -1
  br i1 %.not.i20.i, label %31, label %Py_DECREF.exit21.i

31:                                               ; preds = %29
  %32 = add nsw i32 %30, -1
  store i32 %32, ptr %24, align 8, !tbaa !21
  %33 = icmp eq i32 %32, 0
  br i1 %33, label %34, label %Py_DECREF.exit21.i

34:                                               ; preds = %31
  call void @_Py_Dealloc(ptr noundef nonnull %24) #9
  br label %Py_DECREF.exit21.i

Py_DECREF.exit21.i:                               ; preds = %34, %31, %29
  %35 = call ptr @PyErr_NoMemory() #9
  br label %EVPXOF_digest_impl.exit

36:                                               ; preds = %26
  %37 = getelementptr inbounds nuw i8, ptr %0, i64 24
  %38 = load i8, ptr %37, align 8, !tbaa !59, !range !26, !noundef !27
  %39 = trunc nuw i8 %38 to i1
  br i1 %39, label %40, label %_PyMutex_Lock.exit.i.i

40:                                               ; preds = %36
  %41 = getelementptr inbounds nuw i8, ptr %0, i64 25
  %42 = cmpxchg ptr %41, i8 0, i8 1 seq_cst seq_cst, align 1
  %43 = extractvalue { i8, i1 } %42, 1
  br i1 %43, label %_PyMutex_Lock.exit.i.i, label %44

44:                                               ; preds = %40
  call void @PyMutex_Lock(ptr noundef nonnull %41) #9
  br label %_PyMutex_Lock.exit.i.i

_PyMutex_Lock.exit.i.i:                           ; preds = %44, %40, %36
  %45 = getelementptr inbounds nuw i8, ptr %0, i64 16
  %46 = load ptr, ptr %45, align 8, !tbaa !62
  %47 = call i32 @EVP_MD_CTX_copy(ptr noundef nonnull %27, ptr noundef %46) #9
  %48 = load i8, ptr %37, align 8, !tbaa !59, !range !26, !noundef !27
  %49 = trunc nuw i8 %48 to i1
  br i1 %49, label %50, label %locked_EVP_MD_CTX_copy.exit.i

50:                                               ; preds = %_PyMutex_Lock.exit.i.i
  %51 = getelementptr inbounds nuw i8, ptr %0, i64 25
  %52 = cmpxchg ptr %51, i8 1, i8 0 seq_cst seq_cst, align 1
  %53 = extractvalue { i8, i1 } %52, 1
  br i1 %53, label %locked_EVP_MD_CTX_copy.exit.i, label %54

54:                                               ; preds = %50
  call void @PyMutex_Unlock(ptr noundef nonnull %51) #9
  br label %locked_EVP_MD_CTX_copy.exit.i

locked_EVP_MD_CTX_copy.exit.i:                    ; preds = %54, %50, %_PyMutex_Lock.exit.i.i
  %.not.i34 = icmp eq i32 %47, 0
  br i1 %.not.i34, label %55, label %62

55:                                               ; preds = %locked_EVP_MD_CTX_copy.exit.i
  %56 = load i32, ptr %24, align 8, !tbaa !21
  %.not.i18.i = icmp sgt i32 %56, -1
  br i1 %.not.i18.i, label %57, label %Py_DECREF.exit19.i

57:                                               ; preds = %55
  %58 = add nsw i32 %56, -1
  store i32 %58, ptr %24, align 8, !tbaa !21
  %59 = icmp eq i32 %58, 0
  br i1 %59, label %60, label %Py_DECREF.exit19.i

60:                                               ; preds = %57
  call void @_Py_Dealloc(ptr noundef nonnull %24) #9
  br label %Py_DECREF.exit19.i

Py_DECREF.exit19.i:                               ; preds = %60, %57, %55
  call void @EVP_MD_CTX_free(ptr noundef nonnull %27) #9
  %61 = load ptr, ptr @PyExc_ValueError, align 8, !tbaa !23
  call void (ptr, ptr, ...) @_setException(ptr noundef %61, ptr noundef null)
  br label %EVPXOF_digest_impl.exit

62:                                               ; preds = %locked_EVP_MD_CTX_copy.exit.i
  %63 = getelementptr inbounds nuw i8, ptr %24, i64 32
  %64 = call i32 @EVP_DigestFinalXOF(ptr noundef nonnull %27, ptr noundef nonnull %63, i64 noundef %.02537.ph) #9
  %.not17.i = icmp eq i32 %64, 0
  br i1 %.not17.i, label %65, label %72

65:                                               ; preds = %62
  %66 = load i32, ptr %24, align 8, !tbaa !21
  %.not.i.i = icmp sgt i32 %66, -1
  br i1 %.not.i.i, label %67, label %Py_DECREF.exit.i

67:                                               ; preds = %65
  %68 = add nsw i32 %66, -1
  store i32 %68, ptr %24, align 8, !tbaa !21
  %69 = icmp eq i32 %68, 0
  br i1 %69, label %70, label %Py_DECREF.exit.i

70:                                               ; preds = %67
  call void @_Py_Dealloc(ptr noundef nonnull %24) #9
  br label %Py_DECREF.exit.i

Py_DECREF.exit.i:                                 ; preds = %70, %67, %65
  call void @EVP_MD_CTX_free(ptr noundef nonnull %27) #9
  %71 = load ptr, ptr @PyExc_ValueError, align 8, !tbaa !23
  call void (ptr, ptr, ...) @_setException(ptr noundef %71, ptr noundef null)
  br label %EVPXOF_digest_impl.exit

72:                                               ; preds = %62
  call void @EVP_MD_CTX_free(ptr noundef nonnull %27) #9
  br label %EVPXOF_digest_impl.exit

EVPXOF_digest_impl.exit:                          ; preds = %72, %Py_DECREF.exit.i, %Py_DECREF.exit19.i, %Py_DECREF.exit21.i, %23, %Py_DECREF.exit.thread, %9
  %.027 = phi ptr [ null, %9 ], [ null, %Py_DECREF.exit.thread ], [ null, %Py_DECREF.exit21.i ], [ %24, %72 ], [ null, %Py_DECREF.exit.i ], [ null, %Py_DECREF.exit19.i ], [ null, %23 ]
  call void @llvm.lifetime.end.p0(i64 8, ptr nonnull %5) #9
  ret ptr %.027
}